target datalayout = "e-m:e-p270:32:32-p271:32:32-p272:64:64-i64:64-i128:128-f80:128-n8:16:32:64-S128"
target triple = "x86_64-pc-linux-gnu"

%"class.fmt::v11::detail::buffer" = type { ptr, i64, i64, ptr }
%"class.fmt::v11::basic_memory_buffer" = type <{ %"class.fmt::v11::detail::buffer", [500 x i8], [4 x i8] }>
%"struct.fmt::v11::detail::allocator" = type { i8 }

@stderr = external global ptr, align 8

; Function Attrs: mustprogress nounwind uwtable
define linkonce_odr hidden void @_ZN3fmt3v116detail9allocatorIcE10deallocateEPcm(ptr noundef nonnull align 1 dereferenceable(1) %0, ptr noundef %1, i64 noundef %2) #3 comdat align 2 {
  %4 = alloca ptr, align 8
  %5 = alloca ptr, align 8
  %6 = alloca i64, align 8
  store ptr %0, ptr %4, align 8, !tbaa !46
  store ptr %1, ptr %5, align 8, !tbaa !4
  store i64 %2, ptr %6, align 8, !tbaa !15
  %7 = load ptr, ptr %5, align 8, !tbaa !4
  call void @free(ptr noundef %7) #26
  ret void
}

; Function Attrs: mustprogress nounwind uwtable
define linkonce_odr hidden noundef i64 @_ZNK3fmt3v116detail6bufferIcE8capacityEv(ptr noundef nonnull align 8 dereferenceable(32) %0) #3 comdat align 2 {
  %2 = alloca ptr, align 8
  store ptr %0, ptr %2, align 8, !tbaa !13
  %3 = load ptr, ptr %2, align 8
  %4 = getelementptr inbounds nuw %"class.fmt::v11::detail::buffer", ptr %3, i32 0, i32 2
  %5 = load i64, ptr %4, align 8, !tbaa !19
  ret i64 %5
}

; Function Attrs: mustprogress nounwind uwtable
define linkonce_odr hidden void @_ZN3fmt3v1119basic_memory_bufferIcLm500ENS0_6detail9allocatorIcEEE10deallocateEv(ptr noundef nonnull align 8 dereferenceable(533) %0) #3 comdat align 2 {
  %2 = alloca ptr, align 8
  %3 = alloca ptr, align 8
  store ptr %0, ptr %2, align 8, !tbaa !44
  %4 = load ptr, ptr %2, align 8
  call void @llvm.lifetime.start.p0(i64 8, ptr %3) #26
  %5 = call noundef ptr @_ZN3fmt3v116detail6bufferIcE4dataEv(ptr noundef nonnull align 8 dereferenceable(32) %4) #26
  store ptr %5, ptr %3, align 8, !tbaa !4
  %6 = load ptr, ptr %3, align 8, !tbaa !4
  %7 = getelementptr inbounds nuw %"class.fmt::v11::basic_memory_buffer", ptr %4, i32 0, i32 1
  %8 = getelementptr inbounds [500 x i8], ptr %7, i64 0, i64 0
  %9 = icmp ne ptr %6, %8
  br i1 %9, label %10, label %14

10:                                               ; preds = %1
  %11 = getelementptr inbounds i8, ptr %4, i64 532
  %12 = load ptr, ptr %3, align 8, !tbaa !4
  %13 = call noundef i64 @_ZNK3fmt3v116detail6bufferIcE8capacityEv(ptr noundef nonnull align 8 dereferenceable(32) %4) #26
  call void @_ZN3fmt3v116detail9allocatorIcE10deallocateEPcm(ptr noundef nonnull align 1 dereferenceable(1) %11, ptr noundef %12, i64 noundef %13)
  br label %14

14:                                               ; preds = %10, %1
  call void @llvm.lifetime.end.p0(i64 8, ptr %3) #26
  ret void
}

; Function Attrs: mustprogress nounwind uwtable
define linkonce_odr hidden void @_ZN3fmt3v116detail6bufferIcE3setEPcm(ptr noundef nonnull align 8 dereferenceable(32) %0, ptr noundef %1, i64 noundef %2) #3 comdat align 2 {
  %4 = alloca ptr, align 8
  %5 = alloca ptr, align 8
  %6 = alloca i64, align 8
  store ptr %0, ptr %4, align 8, !tbaa !13
  store ptr %1, ptr %5, align 8, !tbaa !4
  store i64 %2, ptr %6, align 8, !tbaa !15
  %7 = load ptr, ptr %4, align 8
  %8 = load ptr, ptr %5, align 8, !tbaa !4
  %9 = getelementptr inbounds nuw %"class.fmt::v11::detail::buffer", ptr %7, i32 0, i32 0
  store ptr %8, ptr %9, align 8, !tbaa !48
  %10 = load i64, ptr %6, align 8, !tbaa !15
  %11 = getelementptr inbounds nuw %"class.fmt::v11::detail::buffer", ptr %7, i32 0, i32 2
  store i64 %10, ptr %11, align 8, !tbaa !19
  ret void
}

; Function Attrs: mustprogress nounwind uwtable
define linkonce_odr hidden void @_ZN3fmt3v116detail6bufferIcEC2EPFvRS3_mEPcmm(ptr noundef nonnull align 8 dereferenceable(32) %0, ptr noundef %1, ptr noundef %2, i64 noundef %3, i64 noundef %4) unnamed_addr #3 comdat align 2 {
  %6 = alloca ptr, align 8
  %7 = alloca ptr, align 8
  %8 = alloca ptr, align 8
  %9 = alloca i64, align 8
  %10 = alloca i64, align 8
  store ptr %0, ptr %6, align 8, !tbaa !13
  store ptr %1, ptr %7, align 8, !tbaa !31
  store ptr %2, ptr %8, align 8, !tbaa !4
  store i64 %3, ptr %9, align 8, !tbaa !15
  store i64 %4, ptr %10, align 8, !tbaa !15
  %11 = load ptr, ptr %6, align 8
  %12 = getelementptr inbounds nuw %"class.fmt::v11::detail::buffer", ptr %11, i32 0, i32 0
  %13 = load ptr, ptr %8, align 8, !tbaa !4
  store ptr %13, ptr %12, align 8, !tbaa !48
  %14 = getelementptr inbounds nuw %"class.fmt::v11::detail::buffer", ptr %11, i32 0, i32 1
  %15 = load i64, ptr %9, align 8, !tbaa !15
  store i64 %15, ptr %14, align 8, !tbaa !21
  %16 = getelementptr inbounds nuw %"class.fmt::v11::detail::buffer", ptr %11, i32 0, i32 2
  %17 = load i64, ptr %10, align 8, !tbaa !15
  store i64 %17, ptr %16, align 8, !tbaa !19
  %18 = getelementptr inbounds nuw %"class.fmt::v11::detail::buffer", ptr %11, i32 0, i32 3
  %19 = load ptr, ptr %7, align 8, !tbaa !31
  store ptr %19, ptr %18, align 8, !tbaa !213
  ret void
}

; Function Attrs: mustprogress nounwind uwtable
define linkonce_odr hidden void @_ZN3fmt3v1119basic_memory_bufferIcLm500ENS0_6detail9allocatorIcEEED2Ev(ptr noundef nonnull align 8 dereferenceable(533) %0) unnamed_addr #3 comdat align 2 personality ptr @__gxx_personality_v0 {
  %2 = alloca ptr, align 8
  store ptr %0, ptr %2, align 8, !tbaa !44
  %3 = load ptr, ptr %2, align 8
  invoke void @_ZN3fmt3v1119basic_memory_bufferIcLm500ENS0_6detail9allocatorIcEEE10deallocateEv(ptr noundef nonnull align 8 dereferenceable(533) %3)
          to label %4 unwind label %5

4:                                                ; preds = %1
  ret void

5:                                                ; preds = %1
  %6 = landingpad { ptr, i32 }
          catch ptr null
  %7 = extractvalue { ptr, i32 } %6, 0
  call void @__clang_call_terminate(ptr %7) #27
  unreachable
}

; Function Attrs: mustprogress nounwind uwtable
define linkonce_odr hidden noundef i64 @_ZNK3fmt3v116detail6bufferIcE4sizeEv(ptr noundef nonnull align 8 dereferenceable(32) %0) #3 comdat align 2 {
  %2 = alloca ptr, align 8
  store ptr %0, ptr %2, align 8, !tbaa !13
  %3 = load ptr, ptr %2, align 8
  %4 = getelementptr inbounds nuw %"class.fmt::v11::detail::buffer", ptr %3, i32 0, i32 1
  %5 = load i64, ptr %4, align 8, !tbaa !21
  ret i64 %5
}

; Function Attrs: mustprogress nounwind uwtable
define linkonce_odr hidden noundef ptr @_ZN3fmt3v116detail6bufferIcE4dataEv(ptr noundef nonnull align 8 dereferenceable(32) %0) #3 comdat align 2 {
  %2 = alloca ptr, align 8
  store ptr %0, ptr %2, align 8, !tbaa !13
  %3 = load ptr, ptr %2, align 8
  %4 = getelementptr inbounds nuw %"class.fmt::v11::detail::buffer", ptr %3, i32 0, i32 0
  %5 = load ptr, ptr %4, align 8, !tbaa !48
  ret ptr %5
}

; Function Attrs: mustprogress nounwind uwtable
define linkonce_odr hidden void @_ZN3fmt3v1119basic_memory_bufferIcLm500ENS0_6detail9allocatorIcEEEC2ERKS4_(ptr noundef nonnull align 8 dereferenceable(533) %0, ptr noundef nonnull align 1 dereferenceable(1) %1) unnamed_addr #3 comdat align 2 {
  %3 = alloca ptr, align 8
  %4 = alloca ptr, align 8
  store ptr %0, ptr %3, align 8, !tbaa !44
  store ptr %1, ptr %4, align 8, !tbaa !46
  %5 = load ptr, ptr %3, align 8
  call void @_ZN3fmt3v116detail6bufferIcEC2EPFvRS3_mEPcmm(ptr noundef nonnull align 8 dereferenceable(32) %5, ptr noundef @_ZN3fmt3v1119basic_memory_bufferIcLm500ENS0_6detail9allocatorIcEEE4growERNS2_6bufferIcEEm, ptr noundef null, i64 noundef 0, i64 noundef 0) #26
  %6 = getelementptr inbounds nuw %"class.fmt::v11::basic_memory_buffer", ptr %5, i32 0, i32 1
  %7 = getelementptr inbounds [500 x i8], ptr %6, i64 0, i64 0
  call void @_ZN3fmt3v116detail6bufferIcE3setEPcm(ptr noundef nonnull align 8 dereferenceable(32) %5, ptr noundef %7, i64 noundef 500) #26
  ret void
}

; Function Attrs: mustprogress nounwind uwtable
define hidden void @_ZN3fmt3v116detail15do_report_errorEPFvRNS1_6bufferIcEEiPKcEiS6_(ptr noundef %0, i32 noundef %1, ptr noundef %2) #3 personality ptr @__gxx_personality_v0 {
  %4 = alloca ptr, align 8
  %5 = alloca i32, align 4
  %6 = alloca ptr, align 8
  %7 = alloca %"class.fmt::v11::basic_memory_buffer", align 8
  %8 = alloca %"struct.fmt::v11::detail::allocator", align 1
  store ptr %0, ptr %4, align 8, !tbaa !31
  store i32 %1, ptr %5, align 4, !tbaa !9
  store ptr %2, ptr %6, align 8, !tbaa !4
  call void @llvm.lifetime.start.p0(i64 536, ptr %7) #26
  call void @llvm.lifetime.start.p0(i64 1, ptr %8) #26
  invoke void @_ZN3fmt3v1119basic_memory_bufferIcLm500ENS0_6detail9allocatorIcEEEC2ERKS4_(ptr noundef nonnull align 8 dereferenceable(533) %7, ptr noundef nonnull align 1 dereferenceable(1) %8)
          to label %9 unwind label %25

9:                                                ; preds = %3
  call void @llvm.lifetime.end.p0(i64 1, ptr %8) #26
  %10 = load ptr, ptr %4, align 8, !tbaa !31
  %11 = load i32, ptr %5, align 4, !tbaa !9
  %12 = load ptr, ptr %6, align 8, !tbaa !4
  invoke void %10(ptr noundef nonnull align 8 dereferenceable(32) %7, i32 noundef %11, ptr noundef %12)
          to label %13 unwind label %25

13:                                               ; preds = %9
  %14 = call noundef ptr @_ZN3fmt3v116detail6bufferIcE4dataEv(ptr noundef nonnull align 8 dereferenceable(32) %7) #26
  %15 = call noundef i64 @_ZNK3fmt3v116detail6bufferIcE4sizeEv(ptr noundef nonnull align 8 dereferenceable(32) %7) #26
  %16 = load ptr, ptr @stderr, align 8, !tbaa !11
  %17 = invoke i64 @fwrite(ptr noundef %14, i64 noundef %15, i64 noundef 1, ptr noundef %16)
          to label %18 unwind label %25

18:                                               ; preds = %13
  %19 = icmp ugt i64 %17, 0
  br i1 %19, label %20, label %24

20:                                               ; preds = %18
  %21 = load ptr, ptr @stderr, align 8, !tbaa !11
  %22 = invoke i32 @fputc(i32 noundef 10, ptr noundef %21)
          to label %23 unwind label %25

23:                                               ; preds = %20
  br label %24

24:                                               ; preds = %23, %18
  call void @_ZN3fmt3v1119basic_memory_bufferIcLm500ENS0_6detail9allocatorIcEEED2Ev(ptr noundef nonnull align 8 dereferenceable(533) %7) #26
  call void @llvm.lifetime.end.p0(i64 536, ptr %7) #26
  ret void

25:                                               ; preds = %20, %13, %9, %3
  %26 = landingpad { ptr, i32 }
          catch ptr null
  %27 = extractvalue { ptr, i32 } %26, 0
  call void @__clang_call_terminate(ptr %27) #27
  unreachable
}